; Function Attrs: mustprogress uwtable
define hidden noundef zeroext i1 @_ZN11macro_decls6insertER11ast_managerjPKP4sortP4expr(ptr nocapture noundef nonnull align 8 dereferenceable(8) %this, ptr nocapture nonnull readnone align 8 %m, i32 noundef %arity, ptr nocapture noundef readonly %domain, ptr noundef %body) local_unnamed_addr #4 align 2 personality ptr @__gxx_personality_v0 {
entry:
  %ref.tmp = alloca %struct.macro_decl, align 8
  %call = tail call noundef ptr @_ZNK11macro_decls4findEjPKP4sort(ptr noundef nonnull align 8 dereferenceable(8) %this, i32 noundef %arity, ptr noundef %domain)
  %tobool.not = icmp eq ptr %call, null
  br i1 %tobool.not, label %if.end, label %return

if.end:                                           ; preds = %entry
  %tobool.not.i = icmp eq ptr %body, null
  br i1 %tobool.not.i, label %_ZN11ast_manager7inc_refEP3ast.exit, label %if.then.i

if.then.i:                                        ; preds = %if.end
  %m_ref_count.i.i = getelementptr inbounds i8, ptr %body, i64 8
  %0 = load i32, ptr %m_ref_count.i.i, align 4
  %inc.i.i = add i32 %0, 1
  store i32 %inc.i.i, ptr %m_ref_count.i.i, align 4
  br label %_ZN11ast_manager7inc_refEP3ast.exit

_ZN11ast_manager7inc_refEP3ast.exit:              ; preds = %if.end, %if.then.i
  %1 = load ptr, ptr %this, align 8
  %tobool2.not = icmp eq ptr %1, null
  br i1 %tobool2.not, label %if.then3, label %if.end6

if.then3:                                         ; preds = %_ZN11ast_manager7inc_refEP3ast.exit
  %call4 = tail call noalias noundef ptr @_ZN6memory8allocateEm(i64 noundef 8)
  store ptr null, ptr %call4, align 8
  store ptr %call4, ptr %this, align 8
  br label %if.end6

if.end6:                                          ; preds = %if.then3, %_ZN11ast_manager7inc_refEP3ast.exit
  %2 = phi ptr [ %call4, %if.then3 ], [ %1, %_ZN11ast_manager7inc_refEP3ast.exit ]
  store ptr null, ptr %ref.tmp, align 8
  %cmp3.not.i.i.i = icmp eq i32 %arity, 0
  br i1 %cmp3.not.i.i.i, label %_ZN10macro_declC2EjPKP4sortP4expr.exit, label %for.body.preheader.i.i.i

for.body.preheader.i.i.i:                         ; preds = %if.end6
  %wide.trip.count.i.i.i = zext i32 %arity to i64
  br label %for.body.i.i.i

for.bodythread-pre-split.i.i.i:                   ; preds = %_ZN6vectorIP4sortLb0EjE9push_backERKS1_.exit.i.i.i
  %.pr.i.i.i = load ptr, ptr %ref.tmp, align 8
  br label %for.body.i.i.i

for.body.i.i.i:                                   ; preds = %for.bodythread-pre-split.i.i.i, %for.body.preheader.i.i.i
  %3 = phi ptr [ %.pr.i.i.i, %for.bodythread-pre-split.i.i.i ], [ null, %for.body.preheader.i.i.i ]
  %indvars.iv.i.i.i = phi i64 [ %indvars.iv.next.i.i.i, %for.bodythread-pre-split.i.i.i ], [ 0, %for.body.preheader.i.i.i ]
  %arrayidx.i.i.i = getelementptr inbounds ptr, ptr %domain, i64 %indvars.iv.i.i.i
  %cmp.i.i.i.i = icmp eq ptr %3, null
  br i1 %cmp.i.i.i.i, label %if.then.i.i.i.i, label %lor.lhs.false.i.i.i.i

lor.lhs.false.i.i.i.i:                            ; preds = %for.body.i.i.i
  %arrayidx.i.i.i.i = getelementptr inbounds i8, ptr %3, i64 -4
  %4 = load i32, ptr %arrayidx.i.i.i.i, align 4
  %arrayidx4.i.i.i.i = getelementptr inbounds i8, ptr %3, i64 -8
  %5 = load i32, ptr %arrayidx4.i.i.i.i, align 4
  %cmp5.i.i.i.i = icmp eq i32 %4, %5
  br i1 %cmp5.i.i.i.i, label %if.then.i.i.i.i, label %_ZN6vectorIP4sortLb0EjE9push_backERKS1_.exit.i.i.i

if.then.i.i.i.i:                                  ; preds = %lor.lhs.false.i.i.i.i, %for.body.i.i.i
  call void @_ZN6vectorIP4sortLb0EjE13expand_vectorEv(ptr noundef nonnull align 8 dereferenceable(8) %ref.tmp)
  %.pre.i.i.i.i = load ptr, ptr %ref.tmp, align 8
  %arrayidx8.phi.trans.insert.i.i.i.i = getelementptr inbounds i8, ptr %.pre.i.i.i.i, i64 -4
  %.pre1.i.i.i.i = load i32, ptr %arrayidx8.phi.trans.insert.i.i.i.i, align 4
  br label %_ZN6vectorIP4sortLb0EjE9push_backERKS1_.exit.i.i.i

_ZN6vectorIP4sortLb0EjE9push_backERKS1_.exit.i.i.i: ; preds = %if.then.i.i.i.i, %lor.lhs.false.i.i.i.i
  %6 = phi i32 [ %.pre1.i.i.i.i, %if.then.i.i.i.i ], [ %4, %lor.lhs.false.i.i.i.i ]
  %7 = phi ptr [ %.pre.i.i.i.i, %if.then.i.i.i.i ], [ %3, %lor.lhs.false.i.i.i.i ]
  %idx.ext.i.i.i.i = zext i32 %6 to i64
  %add.ptr.i.i.i.i = getelementptr inbounds ptr, ptr %7, i64 %idx.ext.i.i.i.i
  %8 = load ptr, ptr %arrayidx.i.i.i, align 8
  store ptr %8, ptr %add.ptr.i.i.i.i, align 8
  %9 = load ptr, ptr %ref.tmp, align 8
  %arrayidx10.i.i.i.i = getelementptr inbounds i8, ptr %9, i64 -4
  %10 = load i32, ptr %arrayidx10.i.i.i.i, align 4
  %inc.i.i.i.i = add i32 %10, 1
  store i32 %inc.i.i.i.i, ptr %arrayidx10.i.i.i.i, align 4
  %indvars.iv.next.i.i.i = add nuw nsw i64 %indvars.iv.i.i.i, 1
  %exitcond.not.i.i.i = icmp eq i64 %indvars.iv.next.i.i.i, %wide.trip.count.i.i.i
  br i1 %exitcond.not.i.i.i, label %_ZN10macro_declC2EjPKP4sortP4expr.exit, label %for.bodythread-pre-split.i.i.i, !llvm.loop !23

_ZN10macro_declC2EjPKP4sortP4expr.exit:           ; preds = %_ZN6vectorIP4sortLb0EjE9push_backERKS1_.exit.i.i.i, %if.end6
  %m_body.i = getelementptr inbounds i8, ptr %ref.tmp, i64 8
  store ptr %body, ptr %m_body.i, align 8
  %11 = load ptr, ptr %2, align 8
  %cmp.i = icmp eq ptr %11, null
  br i1 %cmp.i, label %if.then.i4, label %lor.lhs.false.i

lor.lhs.false.i:                                  ; preds = %_ZN10macro_declC2EjPKP4sortP4expr.exit
  %arrayidx.i = getelementptr inbounds i8, ptr %11, i64 -4
  %12 = load i32, ptr %arrayidx.i, align 4
  %arrayidx4.i = getelementptr inbounds i8, ptr %11, i64 -8
  %13 = load i32, ptr %arrayidx4.i, align 4
  %cmp5.i = icmp eq i32 %12, %13
  br i1 %cmp5.i, label %if.then.i4, label %invoke.cont

if.then.i4:                                       ; preds = %lor.lhs.false.i, %_ZN10macro_declC2EjPKP4sortP4expr.exit
  invoke void @_ZN6vectorI10macro_declLb1EjE13expand_vectorEv(ptr noundef nonnull align 8 dereferenceable(8) %2)
          to label %.noexc unwind label %lpad

.noexc:                                           ; preds = %if.then.i4
  %.pre.i = load ptr, ptr %2, align 8
  %arrayidx8.phi.trans.insert.i = getelementptr inbounds i8, ptr %.pre.i, i64 -4
  %.pre1.i = load i32, ptr %arrayidx8.phi.trans.insert.i, align 4
  br label %invoke.cont

invoke.cont:                                      ; preds = %.noexc, %lor.lhs.false.i
  %14 = phi i32 [ %.pre1.i, %.noexc ], [ %12, %lor.lhs.false.i ]
  %15 = phi ptr [ %.pre.i, %.noexc ], [ %11, %lor.lhs.false.i ]
  %idx.ext.i = zext i32 %14 to i64
  %add.ptr.i = getelementptr inbounds %struct.macro_decl, ptr %15, i64 %idx.ext.i
  store ptr null, ptr %add.ptr.i, align 8
  %16 = load ptr, ptr %ref.tmp, align 8
  store ptr %16, ptr %add.ptr.i, align 8
  store ptr null, ptr %ref.tmp, align 8
  %m_body.i.i = getelementptr inbounds i8, ptr %add.ptr.i, i64 8
  %17 = load ptr, ptr %m_body.i, align 8
  store ptr %17, ptr %m_body.i.i, align 8
  %18 = load ptr, ptr %2, align 8
  %arrayidx10.i = getelementptr inbounds i8, ptr %18, i64 -4
  %19 = load i32, ptr %arrayidx10.i, align 4
  %inc.i = add i32 %19, 1
  store i32 %inc.i, ptr %arrayidx10.i, align 4
  %20 = load ptr, ptr %ref.tmp, align 8
  %tobool.not.i.i.i.i = icmp eq ptr %20, null
  br i1 %tobool.not.i.i.i.i, label %return, label %if.then.i.i.i.i5

if.then.i.i.i.i5:                                 ; preds = %invoke.cont
  %add.ptr.i.i.i.i.i = getelementptr inbounds i8, ptr %20, i64 -8
  invoke void @_ZN6memory10deallocateEPv(ptr noundef nonnull %add.ptr.i.i.i.i.i)
          to label %return unwind label %terminate.lpad.i.i.i

terminate.lpad.i.i.i:                             ; preds = %if.then.i.i.i.i5
  %21 = landingpad { ptr, i32 }
          catch ptr null
  %22 = extractvalue { ptr, i32 } %21, 0
  call void @__clang_call_terminate(ptr %22) #24
  unreachable

lpad:                                             ; preds = %if.then.i4
  %23 = landingpad { ptr, i32 }
          cleanup
  call void @_ZN10macro_declD2Ev(ptr noundef nonnull align 8 dereferenceable(16) %ref.tmp) #25
  resume { ptr, i32 } %23

return:                                           ; preds = %if.then.i.i.i.i5, %invoke.cont, %entry
  ret i1 %tobool.not
}